; Function Attrs: nounwind sspstrong uwtable
define internal i64 @rb_obj_inspect(i64 noundef %0) #2 {
  %2 = tail call i64 @rb_ivar_count(i64 noundef %0) #23
  %.not = icmp eq i64 %2, 0
  %3 = icmp eq i64 %0, 0
  %4 = and i64 %0, 7
  %5 = icmp ne i64 %4, 0
  %6 = or i1 %3, %5
  br i1 %.not, label %23, label %7

7:                                                ; preds = %1
  br i1 %6, label %11, label %8

8:                                                ; preds = %7
  %9 = inttoptr i64 %0 to ptr
  %10 = getelementptr inbounds nuw i8, ptr %9, i64 8
  br label %rb_class_of.exit

11:                                               ; preds = %7
  switch i64 %0, label %14 [
    i64 0, label %rb_class_of.exit
    i64 4, label %12
    i64 20, label %13
  ]

12:                                               ; preds = %11
  br label %rb_class_of.exit

13:                                               ; preds = %11
  br label %rb_class_of.exit

14:                                               ; preds = %11
  %15 = and i64 %0, 1
  %.not.i = icmp eq i64 %15, 0
  br i1 %.not.i, label %16, label %rb_class_of.exit

16:                                               ; preds = %14
  %17 = and i64 %0, 254
  %18 = icmp eq i64 %17, 12
  %spec.select.i = select i1 %18, ptr @rb_cSymbol, ptr @rb_cFloat
  br label %rb_class_of.exit

rb_class_of.exit:                                 ; preds = %8, %11, %12, %13, %14, %16
  %.0.in.i = phi ptr [ @rb_cNilClass, %12 ], [ @rb_cTrueClass, %13 ], [ %10, %8 ], [ @rb_cFalseClass, %11 ], [ @rb_cInteger, %14 ], [ %spec.select.i, %16 ]
  %.0.i = load i64, ptr %.0.in.i, align 8, !tbaa !7
  %19 = tail call i64 @rb_class_name(i64 noundef %.0.i) #23
  %20 = inttoptr i64 %0 to ptr
  %21 = tail call i64 (ptr, ...) @rb_sprintf(ptr noundef nonnull @.str.166, i64 noundef %19, ptr noundef %20) #23
  %22 = tail call i64 @rb_exec_recursive(ptr noundef nonnull @inspect_obj, i64 noundef %0, i64 noundef %21) #23
  br label %38

23:                                               ; preds = %1
  br i1 %6, label %27, label %24

24:                                               ; preds = %23
  %25 = inttoptr i64 %0 to ptr
  %26 = getelementptr inbounds nuw i8, ptr %25, i64 8
  br label %rb_any_to_s.exit

27:                                               ; preds = %23
  switch i64 %0, label %30 [
    i64 0, label %rb_any_to_s.exit
    i64 4, label %28
    i64 20, label %29
  ]

28:                                               ; preds = %27
  br label %rb_any_to_s.exit

29:                                               ; preds = %27
  br label %rb_any_to_s.exit

30:                                               ; preds = %27
  %31 = and i64 %0, 1
  %.not.i.i = icmp eq i64 %31, 0
  br i1 %.not.i.i, label %32, label %rb_any_to_s.exit

32:                                               ; preds = %30
  %33 = and i64 %0, 254
  %34 = icmp eq i64 %33, 12
  %spec.select.i.i = select i1 %34, ptr @rb_cSymbol, ptr @rb_cFloat
  br label %rb_any_to_s.exit

rb_any_to_s.exit:                                 ; preds = %24, %27, %28, %29, %30, %32
  %.0.in.i.i = phi ptr [ @rb_cNilClass, %28 ], [ @rb_cTrueClass, %29 ], [ %26, %24 ], [ @rb_cFalseClass, %27 ], [ @rb_cInteger, %30 ], [ %spec.select.i.i, %32 ]
  %.0.i.i = load i64, ptr %.0.in.i.i, align 8, !tbaa !7
  %35 = tail call i64 @rb_class_name(i64 noundef %.0.i.i) #23
  %36 = inttoptr i64 %0 to ptr
  %37 = tail call i64 (ptr, ...) @rb_sprintf(ptr noundef nonnull @.str.5, i64 noundef %35, ptr noundef %36) #23
  br label %38

38:                                               ; preds = %rb_any_to_s.exit, %rb_class_of.exit
  %.0 = phi i64 [ %22, %rb_class_of.exit ], [ %37, %rb_any_to_s.exit ]
  ret i64 %.0
}